target datalayout = "e-m:e-p270:32:32-p271:32:32-p272:64:64-i64:64-i128:128-f80:128-n8:16:32:64-S128"
target triple = "x86_64-pc-linux-gnu"

%struct._zend_array = type { %struct._zend_refcounted_h, %union.anon.0, i32, %union.anon.1, i32, i32, i32, i32, i64, ptr }
%struct._zend_refcounted_h = type { i32, %union.anon }
%union.anon = type { i32 }
%union.anon.0 = type { i32 }
%union.anon.1 = type { ptr }
%struct._zend_stack = type { i32, i32, i32, ptr }
%struct._zend_executor_globals = type { %struct._zval_struct, %struct._zval_struct, [32 x ptr], ptr, ptr, %struct._zend_array, %struct._zend_array, ptr, i32, i32, ptr, ptr, ptr, ptr, ptr, ptr, i64, ptr, ptr, i32, i32, i64, i32, i32, i32, i8, i8, %struct.zend_atomic_bool_s, %struct.zend_atomic_bool_s, ptr, i64, ptr, ptr, %struct._zend_array, %struct._zend_array, i32, i8, %struct._zval_struct, %struct._zval_struct, %struct._zend_stack, %struct._zend_stack, %struct._zend_stack, ptr, i32, i32, i64, ptr, ptr, ptr, %struct._zend_objects_store, ptr, ptr, ptr, [3 x %struct._zend_op], ptr, i8, i8, i64, i32, i32, ptr, [16 x %struct._HashTableIterator], ptr, %union._zend_function, %struct._zend_op, %struct._zend_array, i64, %struct.zend_get_gc_buffer, ptr, ptr, ptr, i64, i8, i32, ptr, ptr, i64, %struct._zend_call_stack, i64, i64, [6 x ptr] }
%struct.zend_atomic_bool_s = type { i8 }
%struct._zval_struct = type { %union._zend_value, %union.anon.3, %union.anon.6 }
%union._zend_value = type { i64 }
%union.anon.3 = type { i32 }
%union.anon.6 = type { i32 }
%struct._zend_objects_store = type { ptr, i32, i32, i32 }
%struct._HashTableIterator = type { ptr, i32, i32 }
%union._zend_function = type { %struct._zend_op_array }
%struct._zend_op_array = type { i8, [3 x i8], i32, ptr, ptr, ptr, i32, i32, ptr, ptr, ptr, ptr, i32, i32, i32, i32, ptr, ptr, ptr, ptr, ptr, i32, i32, ptr, ptr, ptr, i32, i32, i32, i32, ptr, ptr, [6 x ptr] }
%struct._zend_op = type { ptr, %union._znode_op, %union._znode_op, %union._znode_op, i32, i32, i8, i8, i8, i8 }
%union._znode_op = type { i32 }
%struct.zend_get_gc_buffer = type { ptr, ptr, ptr }
%struct._zend_call_stack = type { ptr, i64 }
%struct.anon.7 = type { i8, [3 x i8], i32, ptr, ptr, ptr, i32, i32, ptr, ptr, ptr, ptr, i32 }

@executor_globals = global %struct._zend_executor_globals zeroinitializer, align 8
@zend_observer_function_declared_observed = external global i8, align 1

; Function Attrs: nounwind uwtable
define internal void @zend_observer_function_declared_notify(ptr noundef %0, ptr noundef %1) #0 {
  %3 = alloca ptr, align 8
  %4 = alloca ptr, align 8
  store ptr %0, ptr %3, align 8
  store ptr %1, ptr %4, align 8
  %5 = load i8, ptr @zend_observer_function_declared_observed, align 1
  %6 = trunc i8 %5 to i1
  %7 = xor i1 %6, true
  %8 = xor i1 %7, true
  %9 = zext i1 %8 to i32
  %10 = sext i32 %9 to i64
  %11 = icmp ne i64 %10, 0
  br i1 %11, label %12, label %15

12:                                               ; preds = %2
  %13 = load ptr, ptr %3, align 8
  %14 = load ptr, ptr %4, align 8
  call void @_zend_observer_function_declared_notify(ptr noundef %13, ptr noundef %14)
  br label %15

15:                                               ; preds = %12, %2
  ret void
}

; Function Attrs: nounwind uwtable
define i32 @do_bind_function(ptr noundef %0, ptr noundef %1) #0 {
  %3 = alloca ptr, align 8
  %4 = alloca ptr, align 8
  %5 = alloca ptr, align 8
  %6 = alloca ptr, align 8
  %7 = alloca ptr, align 8
  %8 = alloca %struct._zval_struct, align 8
  %9 = alloca ptr, align 8
  %10 = alloca i32, align 4
  %11 = alloca i32, align 4
  %12 = alloca ptr, align 8
  %13 = alloca ptr, align 8
  %14 = alloca ptr, align 8
  %15 = alloca ptr, align 8
  store ptr %0, ptr %13, align 8
  store ptr %1, ptr %14, align 8
  %16 = load ptr, ptr getelementptr inbounds (%struct._zend_executor_globals, ptr @executor_globals, i32 0, i32 10), align 8
  %17 = load ptr, ptr %14, align 8
  %18 = getelementptr inbounds %struct._zval_struct, ptr %17, i32 0, i32 0
  %19 = load ptr, ptr %18, align 8
  %20 = load ptr, ptr %13, align 8
  store ptr %16, ptr %5, align 8
  store ptr %19, ptr %6, align 8
  store ptr %20, ptr %7, align 8
  %21 = load ptr, ptr %7, align 8
  store ptr %21, ptr %8, align 8
  %22 = getelementptr inbounds %struct._zval_struct, ptr %8, i32 0, i32 1
  store i32 13, ptr %22, align 8
  %23 = load ptr, ptr %5, align 8
  %24 = load ptr, ptr %6, align 8
  %25 = call ptr @zend_hash_add(ptr noundef %23, ptr noundef %24, ptr noundef %8) #15
  store ptr %25, ptr %9, align 8
  %26 = load ptr, ptr %9, align 8
  %27 = icmp ne ptr %26, null
  br i1 %27, label %28, label %34

28:                                               ; preds = %2
  %29 = load ptr, ptr %9, align 8
  %30 = load ptr, ptr %29, align 8
  %31 = icmp ne ptr %30, null
  call void @llvm.assume(i1 %31)
  %32 = load ptr, ptr %9, align 8
  %33 = load ptr, ptr %32, align 8
  store ptr %33, ptr %4, align 8
  br label %35

34:                                               ; preds = %2
  store ptr null, ptr %4, align 8
  br label %35

35:                                               ; preds = %34, %28
  %36 = load ptr, ptr %4, align 8
  store ptr %36, ptr %15, align 8
  %37 = load ptr, ptr %15, align 8
  %38 = icmp ne ptr %37, null
  %39 = xor i1 %38, true
  %40 = xor i1 %39, true
  %41 = xor i1 %40, true
  %42 = zext i1 %41 to i32
  %43 = sext i32 %42 to i64
  %44 = icmp ne i64 %43, 0
  br i1 %44, label %45, label %50

45:                                               ; preds = %35
  %46 = load ptr, ptr %14, align 8
  %47 = getelementptr inbounds %struct._zval_struct, ptr %46, i32 0, i32 0
  %48 = load ptr, ptr %47, align 8
  %49 = load ptr, ptr %13, align 8
  call void @do_bind_function_error(ptr noundef %48, ptr noundef %49, i1 noundef zeroext false) #14
  unreachable

50:                                               ; preds = %35
  %51 = load ptr, ptr %13, align 8
  %52 = getelementptr inbounds %struct._zend_op_array, ptr %51, i32 0, i32 20
  %53 = load ptr, ptr %52, align 8
  %54 = icmp ne ptr %53, null
  br i1 %54, label %55, label %61

55:                                               ; preds = %50
  %56 = load ptr, ptr %13, align 8
  %57 = getelementptr inbounds %struct._zend_op_array, ptr %56, i32 0, i32 20
  %58 = load ptr, ptr %57, align 8
  %59 = load i32, ptr %58, align 4
  %60 = add i32 %59, 1
  store i32 %60, ptr %58, align 4
  br label %61

61:                                               ; preds = %55, %50
  %62 = load ptr, ptr %13, align 8
  %63 = getelementptr inbounds %struct.anon.7, ptr %62, i32 0, i32 3
  %64 = load ptr, ptr %63, align 8
  %65 = icmp ne ptr %64, null
  br i1 %65, label %66, label %84

66:                                               ; preds = %61
  %67 = load ptr, ptr %13, align 8
  %68 = getelementptr inbounds %struct.anon.7, ptr %67, i32 0, i32 3
  %69 = load ptr, ptr %68, align 8
  store ptr %69, ptr %12, align 8
  %70 = load ptr, ptr %12, align 8
  %71 = getelementptr inbounds %struct._zend_refcounted_h, ptr %70, i32 0, i32 1
  %72 = load i32, ptr %71, align 4
  store i32 %72, ptr %10, align 4
  %73 = load i32, ptr %10, align 4
  %74 = and i32 %73, 1008
  %75 = and i32 %74, 64
  %76 = icmp ne i32 %75, 0
  br i1 %76, label %82, label %77

77:                                               ; preds = %66
  %78 = load ptr, ptr %12, align 8
  store ptr %78, ptr %3, align 8
  %79 = load ptr, ptr %3, align 8
  %80 = load i32, ptr %79, align 4
  %81 = add i32 %80, 1
  store i32 %81, ptr %79, align 4
  store i32 %81, ptr %11, align 4
  br label %83

82:                                               ; preds = %66
  store i32 1, ptr %11, align 4
  br label %83

83:                                               ; preds = %82, %77
  br label %84

84:                                               ; preds = %83, %61
  %85 = load ptr, ptr %13, align 8
  %86 = load ptr, ptr %14, align 8
  %87 = getelementptr inbounds %struct._zval_struct, ptr %86, i32 0, i32 0
  %88 = load ptr, ptr %87, align 8
  call void @zend_observer_function_declared_notify(ptr noundef %85, ptr noundef %88)
  ret i32 0
}