; Function Attrs: nounwind uwtable
define noundef i32 @do_bind_function(ptr noundef %0, ptr nocapture noundef readonly %1) local_unnamed_addr #0 {
  %3 = alloca %struct._zval_struct, align 8
  %4 = load ptr, ptr getelementptr inbounds (%struct._zend_executor_globals, ptr @executor_globals, i64 0, i32 10), align 8
  %5 = load ptr, ptr %1, align 8
  store ptr %0, ptr %3, align 8
  %6 = getelementptr inbounds i8, ptr %3, i64 8
  store i32 13, ptr %6, align 8
  %7 = call ptr @zend_hash_add(ptr noundef %4, ptr noundef %5, ptr noundef nonnull %3) #30
  %.not = icmp eq ptr %7, null
  br i1 %.not, label %8, label %10

8:                                                ; preds = %2
  %9 = load ptr, ptr %1, align 8
  call fastcc void @do_bind_function_error(ptr noundef %9, ptr noundef %0, i1 noundef zeroext false) #33
  unreachable

10:                                               ; preds = %2
  %11 = getelementptr inbounds i8, ptr %0, i64 120
  %12 = load ptr, ptr %11, align 8
  %.not25 = icmp eq ptr %12, null
  br i1 %.not25, label %16, label %13

13:                                               ; preds = %10
  %14 = load i32, ptr %12, align 4
  %15 = add i32 %14, 1
  store i32 %15, ptr %12, align 4
  br label %16

16:                                               ; preds = %13, %10
  %17 = getelementptr inbounds i8, ptr %0, i64 8
  %18 = load ptr, ptr %17, align 8
  %.not26 = icmp eq ptr %18, null
  br i1 %.not26, label %26, label %19

19:                                               ; preds = %16
  %20 = getelementptr inbounds i8, ptr %18, i64 4
  %21 = load i32, ptr %20, align 4
  %22 = and i32 %21, 64
  %.not27 = icmp eq i32 %22, 0
  br i1 %.not27, label %23, label %26

23:                                               ; preds = %19
  %24 = load i32, ptr %18, align 4
  %25 = add i32 %24, 1
  store i32 %25, ptr %18, align 4
  br label %26

26:                                               ; preds = %19, %23, %16
  %27 = load i8, ptr @zend_observer_function_declared_observed, align 1
  %28 = and i8 %27, 1
  %.not.i = icmp eq i8 %28, 0
  br i1 %.not.i, label %zend_observer_function_declared_notify.exit, label %29

29:                                               ; preds = %26
  %30 = load ptr, ptr %1, align 8
  call void @_zend_observer_function_declared_notify(ptr noundef nonnull %0, ptr noundef %30) #30
  br label %zend_observer_function_declared_notify.exit

zend_observer_function_declared_notify.exit:      ; preds = %26, %29
  ret i32 0
}